; Function Attrs: mustprogress uwtable
define void @_Z22ulocimp_getKeywords_77St17basic_string_viewIcSt11char_traitsIcEEcbR10UErrorCode(ptr dead_on_unwind noalias writable sret(%"class.icu_77::CharString") align 8 %0, i64 %1, ptr %2, i8 noundef signext %3, i1 noundef zeroext %4, ptr noundef nonnull align 4 dereferenceable(4) %5) local_unnamed_addr #1 personality ptr @__gxx_personality_v0 {
  %7 = alloca %"class.icu_77::CharStringByteSink", align 8
  tail call void @llvm.experimental.noalias.scope.decl(metadata !15)
  %8 = load i32, ptr %5, align 4, !tbaa !13, !noalias !15
  %9 = icmp slt i32 %8, 1
  tail call void @_ZN6icu_7715MaybeStackArrayIcLi40EEC1Ev(ptr noundef nonnull align 8 dereferenceable(60) %0)
  %10 = getelementptr inbounds nuw i8, ptr %0, i64 56
  store i32 0, ptr %10, align 8, !tbaa !18, !alias.scope !15
  %11 = load ptr, ptr %0, align 8, !tbaa !3, !alias.scope !15
  store i8 0, ptr %11, align 1, !tbaa !20
  br i1 %9, label %12, label %"_ZN6icu_7712ByteSinkUtil23viaByteSinkToCharStringIZ22ulocimp_getKeywords_77St17basic_string_viewIcSt11char_traitsIcEEcbR10UErrorCodeE3$_0vEENS_10CharStringEOT_S7_.exit"

12:                                               ; preds = %6
  call void @llvm.lifetime.start.p0(i64 16, ptr nonnull %7) #20, !noalias !15
  invoke void @_ZN6icu_7718CharStringByteSinkC1EPNS_10CharStringE(ptr noundef nonnull align 8 dereferenceable(16) %7, ptr noundef nonnull align 8 %0)
          to label %13 unwind label %14

13:                                               ; preds = %12
  invoke void @_Z22ulocimp_getKeywords_77St17basic_string_viewIcSt11char_traitsIcEEcRN6icu_778ByteSinkEbR10UErrorCode(i64 %1, ptr %2, i8 noundef signext %3, ptr noundef nonnull align 8 dereferenceable(8) %7, i1 noundef zeroext %4, ptr noundef nonnull align 4 dereferenceable(4) %5)
          to label %"_ZZ22ulocimp_getKeywords_77St17basic_string_viewIcSt11char_traitsIcEEcbR10UErrorCodeENK3$_0clERN6icu_778ByteSinkES4_.exit.i" unwind label %16

"_ZZ22ulocimp_getKeywords_77St17basic_string_viewIcSt11char_traitsIcEEcbR10UErrorCodeENK3$_0clERN6icu_778ByteSinkES4_.exit.i": ; preds = %13
  call void @_ZN6icu_7718CharStringByteSinkD1Ev(ptr noundef nonnull align 8 dereferenceable(16) %7) #20
  call void @llvm.lifetime.end.p0(i64 16, ptr nonnull %7) #20, !noalias !15
  br label %"_ZN6icu_7712ByteSinkUtil23viaByteSinkToCharStringIZ22ulocimp_getKeywords_77St17basic_string_viewIcSt11char_traitsIcEEcbR10UErrorCodeE3$_0vEENS_10CharStringEOT_S7_.exit"

14:                                               ; preds = %12
  %15 = landingpad { ptr, i32 }
          cleanup
  br label %18

16:                                               ; preds = %13
  %17 = landingpad { ptr, i32 }
          cleanup
  call void @_ZN6icu_7718CharStringByteSinkD1Ev(ptr noundef nonnull align 8 dereferenceable(16) %7) #20
  br label %18

18:                                               ; preds = %16, %14
  %.pn.i = phi { ptr, i32 } [ %17, %16 ], [ %15, %14 ]
  call void @llvm.lifetime.end.p0(i64 16, ptr nonnull %7) #20, !noalias !15
  call void @_ZN6icu_7715MaybeStackArrayIcLi40EED1Ev(ptr noundef nonnull align 8 dereferenceable(60) %0) #20
  resume { ptr, i32 } %.pn.i

"_ZN6icu_7712ByteSinkUtil23viaByteSinkToCharStringIZ22ulocimp_getKeywords_77St17basic_string_viewIcSt11char_traitsIcEEcbR10UErrorCodeE3$_0vEENS_10CharStringEOT_S7_.exit": ; preds = %6, %"_ZZ22ulocimp_getKeywords_77St17basic_string_viewIcSt11char_traitsIcEEcbR10UErrorCodeENK3$_0clERN6icu_778ByteSinkES4_.exit.i"
  ret void
}